; Function Attrs: nounwind uwtable
define noalias nonnull ptr @l_Std_Time_TimeZone_ofHours___boxed(ptr noundef %0, ptr noundef %1, ptr noundef %2, ptr noundef %3) local_unnamed_addr #0 {
  %5 = ptrtoint ptr %3 to i64
  %6 = lshr i64 %5, 1
  %7 = trunc i64 %6 to i8
  %8 = and i64 %5, 1
  %.not = icmp eq i64 %8, 0
  br i1 %.not, label %9, label %lean_dec.exit7

9:                                                ; preds = %4
  %10 = load i32, ptr %3, align 4, !tbaa !8
  %11 = icmp sgt i32 %10, 1
  br i1 %11, label %12, label %14, !prof !14

12:                                               ; preds = %9
  %13 = add nsw i32 %10, -1
  store i32 %13, ptr %3, align 4, !tbaa !8
  br label %lean_dec.exit7

14:                                               ; preds = %9
  %.not.i = icmp eq i32 %10, 0
  br i1 %.not.i, label %lean_dec.exit7, label %15

15:                                               ; preds = %14
  tail call void @lean_dec_ref_cold(ptr noundef nonnull %3) #3
  br label %lean_dec.exit7

lean_dec.exit7:                                   ; preds = %15, %14, %12, %4
  %16 = tail call ptr @l_Std_Time_TimeZone_Offset_ofHours(ptr noundef %2) #3
  tail call void @lean_inc_heartbeat() #3
  %17 = tail call noalias ptr @mi_malloc_small(i64 noundef 40) #3
  %18 = icmp eq ptr %17, null
  br i1 %18, label %19, label %l_Std_Time_TimeZone_ofHours.exit

19:                                               ; preds = %lean_dec.exit7
  tail call void @lean_internal_panic_out_of_memory() #4
  unreachable

l_Std_Time_TimeZone_ofHours.exit:                 ; preds = %lean_dec.exit7
  %20 = getelementptr inbounds nuw i8, ptr %17, i64 4
  %21 = getelementptr inbounds nuw i8, ptr %17, i64 32
  store i64 0, ptr %21, align 8, !tbaa !11
  store i32 1, ptr %17, align 4, !tbaa !8
  store i32 196648, ptr %20, align 4
  %22 = getelementptr inbounds nuw i8, ptr %17, i64 8
  store ptr %16, ptr %22, align 8, !tbaa !4
  %23 = getelementptr inbounds nuw i8, ptr %17, i64 16
  store ptr %0, ptr %23, align 8, !tbaa !4
  %24 = getelementptr inbounds nuw i8, ptr %17, i64 24
  store ptr %1, ptr %24, align 8, !tbaa !4
  store i8 %7, ptr %21, align 1, !tbaa !13
  %25 = ptrtoint ptr %2 to i64
  %26 = and i64 %25, 1
  %.not10 = icmp eq i64 %26, 0
  br i1 %.not10, label %27, label %lean_dec.exit

27:                                               ; preds = %l_Std_Time_TimeZone_ofHours.exit
  %28 = load i32, ptr %2, align 4, !tbaa !8
  %29 = icmp sgt i32 %28, 1
  br i1 %29, label %30, label %32, !prof !14

30:                                               ; preds = %27
  %31 = add nsw i32 %28, -1
  store i32 %31, ptr %2, align 4, !tbaa !8
  br label %lean_dec.exit

32:                                               ; preds = %27
  %.not.i8 = icmp eq i32 %28, 0
  br i1 %.not.i8, label %lean_dec.exit, label %33

33:                                               ; preds = %32
  tail call void @lean_dec_ref_cold(ptr noundef nonnull %2) #3
  br label %lean_dec.exit

lean_dec.exit:                                    ; preds = %33, %32, %30, %l_Std_Time_TimeZone_ofHours.exit
  ret ptr %17
}